(lp0
I-2
aI-2
aI20
aI-2
aI20
aI20
aI-10
aI-10
aI-2
aI-8
aI-2
aI20
aI-4
aI-2
aI-6
aI-2
aI20
aI1
aI-2
aI-2
aI0
aI-2
aI20
aI-2
aI20
aI9
aI-3
aI-2
aI-2
aI-2
aI-2
aI-3
aI-2
aI-2
aI-2
aI9
aI-10
aI-2
aI4
aI3
aI20
aI-2
aI-4
aI-2
aI-2
aI-4
aI0
aI-2
aI-2
aI-10
aI-2
aI2
aI3
aI-2
aI-2
aI9
aI-6
aI20
aI-10
aI9
aI6
aI6
aI-2
aI-2
aI-2
aI-10
aI-2
a.